target datalayout = "e-m:e-p270:32:32-p271:32:32-p272:64:64-i64:64-i128:128-f80:128-n8:16:32:64-S128"
target triple = "x86_64-pc-linux-gnu"

@.str.55 = private unnamed_addr constant [18 x i8] c"base out of range\00", align 1
@.str.56 = private unnamed_addr constant [7 x i8] c" \0C\0A\0D\09\0B\00", align 1

; Function Attrs: nounwind uwtable
define internal ptr @b_str2int(ptr noundef %0, i32 noundef %1, ptr noundef %2) #0 {
  %4 = alloca ptr, align 8
  %5 = alloca ptr, align 8
  %6 = alloca i32, align 4
  %7 = alloca ptr, align 8
  %8 = alloca i64, align 8
  %9 = alloca i32, align 4
  %10 = alloca i32, align 4
  %11 = alloca i32, align 4
  %12 = alloca i32, align 4
  %13 = alloca i32, align 4
  store ptr %0, ptr %5, align 8, !tbaa !14
  store i32 %1, ptr %6, align 4, !tbaa !10
  store ptr %2, ptr %7, align 8, !tbaa !23
  call void @llvm.lifetime.start.p0(i64 8, ptr %8) #6
  store i64 0, ptr %8, align 8, !tbaa !12
  call void @llvm.lifetime.start.p0(i64 4, ptr %9) #6
  store i32 0, ptr %9, align 4, !tbaa !10
  %14 = load ptr, ptr %5, align 8, !tbaa !14
  %15 = call i64 @strspn(ptr noundef %14, ptr noundef @.str.56) #7
  %16 = load ptr, ptr %5, align 8, !tbaa !14
  %17 = getelementptr inbounds nuw i8, ptr %16, i64 %15
  store ptr %17, ptr %5, align 8, !tbaa !14
  %18 = load ptr, ptr %5, align 8, !tbaa !14
  %19 = load i8, ptr %18, align 1, !tbaa !9
  %20 = sext i8 %19 to i32
  %21 = icmp eq i32 %20, 45
  br i1 %21, label %22, label %25

22:                                               ; preds = %3
  %23 = load ptr, ptr %5, align 8, !tbaa !14
  %24 = getelementptr inbounds nuw i8, ptr %23, i32 1
  store ptr %24, ptr %5, align 8, !tbaa !14
  store i32 1, ptr %9, align 4, !tbaa !10
  br label %34

25:                                               ; preds = %3
  %26 = load ptr, ptr %5, align 8, !tbaa !14
  %27 = load i8, ptr %26, align 1, !tbaa !9
  %28 = sext i8 %27 to i32
  %29 = icmp eq i32 %28, 43
  br i1 %29, label %30, label %33

30:                                               ; preds = %25
  %31 = load ptr, ptr %5, align 8, !tbaa !14
  %32 = getelementptr inbounds nuw i8, ptr %31, i32 1
  store ptr %32, ptr %5, align 8, !tbaa !14
  br label %33

33:                                               ; preds = %30, %25
  br label %34

34:                                               ; preds = %33, %22
  %35 = call ptr @__ctype_b_loc() #8
  %36 = load ptr, ptr %35, align 8, !tbaa !25
  %37 = load ptr, ptr %5, align 8, !tbaa !14
  %38 = load i8, ptr %37, align 1, !tbaa !9
  %39 = zext i8 %38 to i32
  %40 = sext i32 %39 to i64
  %41 = getelementptr inbounds i16, ptr %36, i64 %40
  %42 = load i16, ptr %41, align 2, !tbaa !27
  %43 = zext i16 %42 to i32
  %44 = and i32 %43, 8
  %45 = icmp ne i32 %44, 0
  br i1 %45, label %47, label %46

46:                                               ; preds = %34
  store ptr null, ptr %4, align 8
  store i32 1, ptr %10, align 4
  br label %125

47:                                               ; preds = %34
  br label %48

48:                                               ; preds = %97, %47
  call void @llvm.lifetime.start.p0(i64 4, ptr %11) #6
  %49 = call ptr @__ctype_b_loc() #8
  %50 = load ptr, ptr %49, align 8, !tbaa !25
  %51 = load ptr, ptr %5, align 8, !tbaa !14
  %52 = load i8, ptr %51, align 1, !tbaa !9
  %53 = zext i8 %52 to i32
  %54 = sext i32 %53 to i64
  %55 = getelementptr inbounds i16, ptr %50, i64 %54
  %56 = load i16, ptr %55, align 2, !tbaa !27
  %57 = zext i16 %56 to i32
  %58 = and i32 %57, 2048
  %59 = icmp ne i32 %58, 0
  br i1 %59, label %60, label %65

60:                                               ; preds = %48
  %61 = load ptr, ptr %5, align 8, !tbaa !14
  %62 = load i8, ptr %61, align 1, !tbaa !9
  %63 = sext i8 %62 to i32
  %64 = sub nsw i32 %63, 48
  br label %78

65:                                               ; preds = %48
  call void @llvm.lifetime.start.p0(i64 4, ptr %12) #6
  %66 = call ptr @__ctype_toupper_loc() #8
  %67 = load ptr, ptr %66, align 8, !tbaa !29
  %68 = load ptr, ptr %5, align 8, !tbaa !14
  %69 = load i8, ptr %68, align 1, !tbaa !9
  %70 = zext i8 %69 to i32
  %71 = sext i32 %70 to i64
  %72 = getelementptr inbounds i32, ptr %67, i64 %71
  %73 = load i32, ptr %72, align 4, !tbaa !10
  store i32 %73, ptr %12, align 4, !tbaa !10
  %74 = load i32, ptr %12, align 4, !tbaa !10
  store i32 %74, ptr %13, align 4, !tbaa !10
  call void @llvm.lifetime.end.p0(i64 4, ptr %12) #6
  %75 = load i32, ptr %13, align 4, !tbaa !10
  %76 = sub nsw i32 %75, 65
  %77 = add nsw i32 %76, 10
  br label %78

78:                                               ; preds = %65, %60
  %79 = phi i32 [ %64, %60 ], [ %77, %65 ]
  store i32 %79, ptr %11, align 4, !tbaa !10
  %80 = load i32, ptr %11, align 4, !tbaa !10
  %81 = load i32, ptr %6, align 4, !tbaa !10
  %82 = icmp uge i32 %80, %81
  br i1 %82, label %83, label %84

83:                                               ; preds = %78
  store ptr null, ptr %4, align 8
  store i32 1, ptr %10, align 4
  br label %94

84:                                               ; preds = %78
  %85 = load i64, ptr %8, align 8, !tbaa !12
  %86 = load i32, ptr %6, align 4, !tbaa !10
  %87 = zext i32 %86 to i64
  %88 = mul i64 %85, %87
  %89 = load i32, ptr %11, align 4, !tbaa !10
  %90 = zext i32 %89 to i64
  %91 = add i64 %88, %90
  store i64 %91, ptr %8, align 8, !tbaa !12
  %92 = load ptr, ptr %5, align 8, !tbaa !14
  %93 = getelementptr inbounds nuw i8, ptr %92, i32 1
  store ptr %93, ptr %5, align 8, !tbaa !14
  store i32 0, ptr %10, align 4
  br label %94

94:                                               ; preds = %84, %83
  call void @llvm.lifetime.end.p0(i64 4, ptr %11) #6
  %95 = load i32, ptr %10, align 4
  switch i32 %95, label %125 [
    i32 0, label %96
  ]

96:                                               ; preds = %94
  br label %97

97:                                               ; preds = %96
  %98 = call ptr @__ctype_b_loc() #8
  %99 = load ptr, ptr %98, align 8, !tbaa !25
  %100 = load ptr, ptr %5, align 8, !tbaa !14
  %101 = load i8, ptr %100, align 1, !tbaa !9
  %102 = zext i8 %101 to i32
  %103 = sext i32 %102 to i64
  %104 = getelementptr inbounds i16, ptr %99, i64 %103
  %105 = load i16, ptr %104, align 2, !tbaa !27
  %106 = zext i16 %105 to i32
  %107 = and i32 %106, 8
  %108 = icmp ne i32 %107, 0
  br i1 %108, label %48, label %109

109:                                              ; preds = %97
  %110 = load ptr, ptr %5, align 8, !tbaa !14
  %111 = call i64 @strspn(ptr noundef %110, ptr noundef @.str.56) #7
  %112 = load ptr, ptr %5, align 8, !tbaa !14
  %113 = getelementptr inbounds nuw i8, ptr %112, i64 %111
  store ptr %113, ptr %5, align 8, !tbaa !14
  %114 = load i32, ptr %9, align 4, !tbaa !10
  %115 = icmp ne i32 %114, 0
  br i1 %115, label %116, label %119

116:                                              ; preds = %109
  %117 = load i64, ptr %8, align 8, !tbaa !12
  %118 = sub i64 0, %117
  br label %121

119:                                              ; preds = %109
  %120 = load i64, ptr %8, align 8, !tbaa !12
  br label %121

121:                                              ; preds = %119, %116
  %122 = phi i64 [ %118, %116 ], [ %120, %119 ]
  %123 = load ptr, ptr %7, align 8, !tbaa !23
  store i64 %122, ptr %123, align 8, !tbaa !12
  %124 = load ptr, ptr %5, align 8, !tbaa !14
  store ptr %124, ptr %4, align 8
  store i32 1, ptr %10, align 4
  br label %125

125:                                              ; preds = %121, %94, %46
  call void @llvm.lifetime.end.p0(i64 4, ptr %9) #6
  call void @llvm.lifetime.end.p0(i64 8, ptr %8) #6
  %126 = load ptr, ptr %4, align 8
  ret ptr %126
}

; Function Attrs: nounwind uwtable
define internal i32 @luaB_tonumber(ptr noundef %0) #0 {
  %2 = alloca i32, align 4
  %3 = alloca ptr, align 8
  %4 = alloca i64, align 8
  %5 = alloca ptr, align 8
  %6 = alloca i32, align 4
  %7 = alloca i64, align 8
  %8 = alloca ptr, align 8
  %9 = alloca i64, align 8
  %10 = alloca i64, align 8
  store ptr %0, ptr %3, align 8, !tbaa !4
  %11 = load ptr, ptr %3, align 8, !tbaa !4
  %12 = call i32 @lua_type(ptr noundef %11, i32 noundef 2)
  %13 = icmp sle i32 %12, 0
  br i1 %13, label %14, label %39

14:                                               ; preds = %1
  %15 = load ptr, ptr %3, align 8, !tbaa !4
  %16 = call i32 @lua_type(ptr noundef %15, i32 noundef 1)
  %17 = icmp eq i32 %16, 3
  br i1 %17, label %18, label %20

18:                                               ; preds = %14
  %19 = load ptr, ptr %3, align 8, !tbaa !4
  call void @lua_settop(ptr noundef %19, i32 noundef 1)
  store i32 1, ptr %2, align 4
  br label %79

20:                                               ; preds = %14
  call void @llvm.lifetime.start.p0(i64 8, ptr %4) #6
  call void @llvm.lifetime.start.p0(i64 8, ptr %5) #6
  %21 = load ptr, ptr %3, align 8, !tbaa !4
  %22 = call ptr @lua_tolstring(ptr noundef %21, i32 noundef 1, ptr noundef %4)
  store ptr %22, ptr %5, align 8, !tbaa !14
  %23 = load ptr, ptr %5, align 8, !tbaa !14
  %24 = icmp ne ptr %23, null
  br i1 %24, label %25, label %33

25:                                               ; preds = %20
  %26 = load ptr, ptr %3, align 8, !tbaa !4
  %27 = load ptr, ptr %5, align 8, !tbaa !14
  %28 = call i64 @lua_stringtonumber(ptr noundef %26, ptr noundef %27)
  %29 = load i64, ptr %4, align 8, !tbaa !16
  %30 = add i64 %29, 1
  %31 = icmp eq i64 %28, %30
  br i1 %31, label %32, label %33

32:                                               ; preds = %25
  store i32 1, ptr %2, align 4
  store i32 1, ptr %6, align 4
  br label %35

33:                                               ; preds = %25, %20
  %34 = load ptr, ptr %3, align 8, !tbaa !4
  call void @luaL_checkany(ptr noundef %34, i32 noundef 1)
  store i32 0, ptr %6, align 4
  br label %35

35:                                               ; preds = %33, %32
  call void @llvm.lifetime.end.p0(i64 8, ptr %5) #6
  call void @llvm.lifetime.end.p0(i64 8, ptr %4) #6
  %36 = load i32, ptr %6, align 4
  switch i32 %36, label %81 [
    i32 0, label %37
    i32 1, label %79
  ]

37:                                               ; preds = %35
  br label %38

38:                                               ; preds = %37
  br label %77

39:                                               ; preds = %1
  call void @llvm.lifetime.start.p0(i64 8, ptr %7) #6
  call void @llvm.lifetime.start.p0(i64 8, ptr %8) #6
  call void @llvm.lifetime.start.p0(i64 8, ptr %9) #6
  store i64 0, ptr %9, align 8, !tbaa !12
  call void @llvm.lifetime.start.p0(i64 8, ptr %10) #6
  %40 = load ptr, ptr %3, align 8, !tbaa !4
  %41 = call i64 @luaL_checkinteger(ptr noundef %40, i32 noundef 2)
  store i64 %41, ptr %10, align 8, !tbaa !12
  %42 = load ptr, ptr %3, align 8, !tbaa !4
  call void @luaL_checktype(ptr noundef %42, i32 noundef 1, i32 noundef 4)
  %43 = load ptr, ptr %3, align 8, !tbaa !4
  %44 = call ptr @lua_tolstring(ptr noundef %43, i32 noundef 1, ptr noundef %7)
  store ptr %44, ptr %8, align 8, !tbaa !14
  %45 = load i64, ptr %10, align 8, !tbaa !12
  %46 = icmp sle i64 2, %45
  br i1 %46, label %47, label %50

47:                                               ; preds = %39
  %48 = load i64, ptr %10, align 8, !tbaa !12
  %49 = icmp sle i64 %48, 36
  br label %50

50:                                               ; preds = %47, %39
  %51 = phi i1 [ false, %39 ], [ %49, %47 ]
  %52 = zext i1 %51 to i32
  %53 = icmp ne i32 %52, 0
  %54 = zext i1 %53 to i32
  %55 = sext i32 %54 to i64
  %56 = call i64 @llvm.expect.i64(i64 %55, i64 1)
  %57 = icmp ne i64 %56, 0
  br i1 %57, label %61, label %58

58:                                               ; preds = %50
  %59 = load ptr, ptr %3, align 8, !tbaa !4
  %60 = call i32 @luaL_argerror(ptr noundef %59, i32 noundef 2, ptr noundef @.str.55)
  br label %61

61:                                               ; preds = %58, %50
  %62 = load ptr, ptr %8, align 8, !tbaa !14
  %63 = load i64, ptr %10, align 8, !tbaa !12
  %64 = trunc i64 %63 to i32
  %65 = call ptr @b_str2int(ptr noundef %62, i32 noundef %64, ptr noundef %9)
  %66 = load ptr, ptr %8, align 8, !tbaa !14
  %67 = load i64, ptr %7, align 8, !tbaa !16
  %68 = getelementptr inbounds nuw i8, ptr %66, i64 %67
  %69 = icmp eq ptr %65, %68
  br i1 %69, label %70, label %73

70:                                               ; preds = %61
  %71 = load ptr, ptr %3, align 8, !tbaa !4
  %72 = load i64, ptr %9, align 8, !tbaa !12
  call void @lua_pushinteger(ptr noundef %71, i64 noundef %72)
  store i32 1, ptr %2, align 4
  store i32 1, ptr %6, align 4
  br label %74

73:                                               ; preds = %61
  store i32 0, ptr %6, align 4
  br label %74

74:                                               ; preds = %73, %70
  call void @llvm.lifetime.end.p0(i64 8, ptr %10) #6
  call void @llvm.lifetime.end.p0(i64 8, ptr %9) #6
  call void @llvm.lifetime.end.p0(i64 8, ptr %8) #6
  call void @llvm.lifetime.end.p0(i64 8, ptr %7) #6
  %75 = load i32, ptr %6, align 4
  switch i32 %75, label %81 [
    i32 0, label %76
    i32 1, label %79
  ]

76:                                               ; preds = %74
  br label %77

77:                                               ; preds = %76, %38
  %78 = load ptr, ptr %3, align 8, !tbaa !4
  call void @lua_pushnil(ptr noundef %78)
  store i32 1, ptr %2, align 4
  br label %79

79:                                               ; preds = %77, %74, %35, %18
  %80 = load i32, ptr %2, align 4
  ret i32 %80

81:                                               ; preds = %74, %35
  unreachable
}