; Function Attrs: nounwind uwtable
define internal noundef i32 @luaB_tonumber(ptr noundef %0) #0 {
  %2 = alloca i64, align 8
  %3 = alloca i64, align 8
  %4 = tail call i32 @lua_type(ptr noundef %0, i32 noundef 2) #9
  %5 = icmp slt i32 %4, 1
  br i1 %5, label %6, label %18

6:                                                ; preds = %1
  %7 = tail call i32 @lua_type(ptr noundef %0, i32 noundef 1) #9
  %8 = icmp eq i32 %7, 3
  br i1 %8, label %9, label %10

9:                                                ; preds = %6
  tail call void @lua_settop(ptr noundef %0, i32 noundef 1) #9
  br label %76

10:                                               ; preds = %6
  call void @llvm.lifetime.start.p0(i64 8, ptr nonnull %2) #9
  %11 = call ptr @lua_tolstring(ptr noundef %0, i32 noundef 1, ptr noundef nonnull %2) #9
  %.not = icmp eq ptr %11, null
  br i1 %.not, label %.thread, label %12

12:                                               ; preds = %10
  %13 = call i64 @lua_stringtonumber(ptr noundef %0, ptr noundef nonnull %11) #9
  %14 = load i64, ptr %2, align 8, !tbaa !9
  %15 = add i64 %14, 1
  %16 = icmp eq i64 %13, %15
  br i1 %16, label %17, label %.thread

.thread:                                          ; preds = %10, %12
  call void @luaL_checkany(ptr noundef %0, i32 noundef 1) #9
  call void @llvm.lifetime.end.p0(i64 8, ptr nonnull %2) #9
  br label %75

17:                                               ; preds = %12
  call void @llvm.lifetime.end.p0(i64 8, ptr nonnull %2) #9
  br label %76

18:                                               ; preds = %1
  call void @llvm.lifetime.start.p0(i64 8, ptr nonnull %3) #9
  %19 = tail call i64 @luaL_checkinteger(ptr noundef %0, i32 noundef 2) #9
  tail call void @luaL_checktype(ptr noundef %0, i32 noundef 1, i32 noundef 4) #9
  %20 = call ptr @lua_tolstring(ptr noundef %0, i32 noundef 1, ptr noundef nonnull %3) #9
  %21 = add i64 %19, -2
  %22 = icmp ult i64 %21, 35
  br i1 %22, label %25, label %23, !prof !8

23:                                               ; preds = %18
  %24 = call i32 @luaL_argerror(ptr noundef %0, i32 noundef 2, ptr noundef nonnull @.str.55) #9
  br label %25

25:                                               ; preds = %23, %18
  %26 = trunc i64 %19 to i32
  %27 = call i64 @strspn(ptr noundef readonly %20, ptr noundef nonnull @.str.56) #10
  %28 = getelementptr inbounds nuw i8, ptr %20, i64 %27
  %29 = load i8, ptr %28, align 1, !tbaa !5
  %.not41.i = icmp eq i8 %29, 45
  %30 = icmp eq i8 %29, 43
  %31 = or i1 %.not41.i, %30
  %.027.idx.i = zext i1 %31 to i64
  %.027.i = getelementptr inbounds nuw i8, ptr %28, i64 %.027.idx.i
  %32 = tail call ptr @__ctype_b_loc() #11
  %33 = load ptr, ptr %32, align 8, !tbaa !14
  %34 = load i8, ptr %.027.i, align 1, !tbaa !5
  %35 = zext i8 %34 to i64
  %36 = getelementptr inbounds nuw i16, ptr %33, i64 %35
  %37 = load i16, ptr %36, align 2, !tbaa !16
  %38 = and i16 %37, 8
  %.not.i = icmp eq i16 %38, 0
  br i1 %.not.i, label %b_str2int.exit, label %.preheader.i

.preheader.i:                                     ; preds = %25
  %39 = and i64 %19, 4294967295
  br label %40

40:                                               ; preds = %56, %.preheader.i
  %41 = phi i16 [ %64, %56 ], [ %37, %.preheader.i ]
  %42 = phi i8 [ %61, %56 ], [ %34, %.preheader.i ]
  %.030.i = phi i64 [ %60, %56 ], [ 0, %.preheader.i ]
  %.128.i = phi ptr [ %57, %56 ], [ %.027.i, %.preheader.i ]
  %43 = and i16 %41, 2048
  %.not37.i = icmp eq i16 %43, 0
  br i1 %.not37.i, label %47, label %44

44:                                               ; preds = %40
  %45 = sext i8 %42 to i32
  %46 = add nsw i32 %45, -48
  br label %54

47:                                               ; preds = %40
  %48 = zext i8 %42 to i64
  %49 = tail call ptr @__ctype_toupper_loc() #11
  %50 = load ptr, ptr %49, align 8, !tbaa !18
  %51 = getelementptr inbounds nuw i32, ptr %50, i64 %48
  %52 = load i32, ptr %51, align 4, !tbaa !20
  %53 = add nsw i32 %52, -55
  br label %54

54:                                               ; preds = %47, %44
  %55 = phi i32 [ %46, %44 ], [ %53, %47 ]
  %.not38.i = icmp ult i32 %55, %26
  br i1 %.not38.i, label %56, label %b_str2int.exit

56:                                               ; preds = %54
  %57 = getelementptr inbounds nuw i8, ptr %.128.i, i64 1
  %58 = zext i32 %55 to i64
  %59 = mul i64 %.030.i, %39
  %60 = add i64 %59, %58
  %61 = load i8, ptr %57, align 1, !tbaa !5
  %62 = zext i8 %61 to i64
  %63 = getelementptr inbounds nuw i16, ptr %33, i64 %62
  %64 = load i16, ptr %63, align 2, !tbaa !16
  %65 = and i16 %64, 8
  %.not39.i = icmp eq i16 %65, 0
  br i1 %.not39.i, label %66, label %40

66:                                               ; preds = %56
  %67 = call i64 @strspn(ptr noundef nonnull %57, ptr noundef nonnull @.str.56) #10
  %68 = getelementptr inbounds nuw i8, ptr %57, i64 %67
  %69 = sub i64 0, %60
  %70 = select i1 %.not41.i, i64 %69, i64 %60
  br label %b_str2int.exit

b_str2int.exit:                                   ; preds = %54, %25, %66
  %.0 = phi i64 [ 0, %25 ], [ %70, %66 ], [ 0, %54 ]
  %.0.i = phi ptr [ null, %25 ], [ %68, %66 ], [ null, %54 ]
  %71 = load i64, ptr %3, align 8, !tbaa !9
  %72 = getelementptr inbounds nuw i8, ptr %20, i64 %71
  %73 = icmp eq ptr %.0.i, %72
  br i1 %73, label %74, label %.thread27

.thread27:                                        ; preds = %b_str2int.exit
  call void @llvm.lifetime.end.p0(i64 8, ptr nonnull %3) #9
  br label %75

74:                                               ; preds = %b_str2int.exit
  call void @lua_pushinteger(ptr noundef %0, i64 noundef %.0) #9
  call void @llvm.lifetime.end.p0(i64 8, ptr nonnull %3) #9
  br label %76

75:                                               ; preds = %.thread27, %.thread
  call void @lua_pushnil(ptr noundef %0) #9
  br label %76

76:                                               ; preds = %74, %17, %75, %9
  ret i32 1
}